; ModuleID = '19/713.c'
source_filename = "19/713.c"
target datalayout = "e-m:e-p270:32:32-p271:32:32-p272:64:64-i64:64-f80:128-n8:16:32:64-S128"
target triple = "x86_64-pc-linux-gnu"

@.str = private unnamed_addr constant [3 x i8] c"%s\00", align 1
@.str.1 = private unnamed_addr constant [2 x i8] c" \00", align 1

; Function Attrs: noinline nounwind uwtable
define dso_local i32 @main() #0 {
  %1 = alloca i32, align 4
  %2 = alloca i32, align 4
  %3 = alloca i32, align 4
  %4 = alloca i32, align 4
  %5 = alloca i32, align 4
  %6 = alloca [101 x [100 x i8]], align 16
  %7 = alloca [101 x i8], align 16
  %8 = alloca [101 x i8], align 16
  %9 = alloca i8, align 1
  %10 = alloca [200 x i8], align 16
  store i32 0, i32* %1, align 4
  store i8 0, i8* %9, align 1
  %11 = getelementptr inbounds [200 x i8], [200 x i8]* %10, i64 0, i64 0
  %12 = call i32 (i8*, ...) bitcast (i32 (...)* @gets to i32 (i8*, ...)*)(i8* %11)
  store i32 0, i32* %4, align 4
  store i32 0, i32* %5, align 4
  br label %13

13:                                               ; preds = %42, %0
  %14 = load i32, i32* %5, align 4
  %15 = sext i32 %14 to i64
  %16 = getelementptr inbounds [200 x i8], [200 x i8]* %10, i64 0, i64 0
  %17 = call i64 @strlen(i8* %16) #3
  %18 = icmp ult i64 %15, %17
  br i1 %18, label %19, label %45

19:                                               ; preds = %13
  %20 = load i32, i32* %5, align 4
  %21 = sext i32 %20 to i64
  %22 = getelementptr inbounds [200 x i8], [200 x i8]* %10, i64 0, i64 %21
  %23 = load i8, i8* %22, align 1
  %24 = sext i8 %23 to i32
  %25 = icmp eq i32 %24, 32
  br i1 %25, label %26, label %29

26:                                               ; preds = %19
  %27 = load i8, i8* %9, align 1
  %28 = add i8 %27, 1
  store i8 %28, i8* %9, align 1
  store i32 0, i32* %4, align 4
  br label %41

29:                                               ; preds = %19
  %30 = load i32, i32* %5, align 4
  %31 = sext i32 %30 to i64
  %32 = getelementptr inbounds [200 x i8], [200 x i8]* %10, i64 0, i64 %31
  %33 = load i8, i8* %32, align 1
  %34 = load i8, i8* %9, align 1
  %35 = sext i8 %34 to i64
  %36 = getelementptr inbounds [101 x [100 x i8]], [101 x [100 x i8]]* %6, i64 0, i64 %35
  %37 = load i32, i32* %4, align 4
  %38 = add nsw i32 %37, 1
  store i32 %38, i32* %4, align 4
  %39 = sext i32 %37 to i64
  %40 = getelementptr inbounds [100 x i8], [100 x i8]* %36, i64 0, i64 %39
  store i8 %33, i8* %40, align 1
  br label %41

41:                                               ; preds = %29, %26
  br label %42

42:                                               ; preds = %41
  %43 = load i32, i32* %5, align 4
  %44 = add nsw i32 %43, 1
  store i32 %44, i32* %5, align 4
  br label %13

45:                                               ; preds = %13
  %46 = load i8, i8* %9, align 1
  %47 = add i8 %46, 1
  store i8 %47, i8* %9, align 1
  %48 = getelementptr inbounds [101 x i8], [101 x i8]* %7, i64 0, i64 0
  %49 = call i32 (i8*, ...) @__isoc99_scanf(i8* getelementptr inbounds ([3 x i8], [3 x i8]* @.str, i64 0, i64 0), i8* %48)
  %50 = getelementptr inbounds [101 x i8], [101 x i8]* %8, i64 0, i64 0
  %51 = call i32 (i8*, ...) @__isoc99_scanf(i8* getelementptr inbounds ([3 x i8], [3 x i8]* @.str, i64 0, i64 0), i8* %50)
  store i32 0, i32* %4, align 4
  br label %52

52:                                               ; preds = %83, %45
  %53 = load i32, i32* %4, align 4
  %54 = load i8, i8* %9, align 1
  %55 = sext i8 %54 to i32
  %56 = icmp slt i32 %53, %55
  br i1 %56, label %57, label %86

57:                                               ; preds = %52
  %58 = load i32, i32* %4, align 4
  %59 = sext i32 %58 to i64
  %60 = getelementptr inbounds [101 x [100 x i8]], [101 x [100 x i8]]* %6, i64 0, i64 %59
  %61 = getelementptr inbounds [100 x i8], [100 x i8]* %60, i64 0, i64 0
  %62 = getelementptr inbounds [101 x i8], [101 x i8]* %7, i64 0, i64 0
  %63 = call i32 @strcmp(i8* %61, i8* %62) #3
  %64 = icmp eq i32 %63, 0
  br i1 %64, label %65, label %68

65:                                               ; preds = %57
  %66 = getelementptr inbounds [101 x i8], [101 x i8]* %8, i64 0, i64 0
  %67 = call i32 (i8*, ...) @printf(i8* getelementptr inbounds ([3 x i8], [3 x i8]* @.str, i64 0, i64 0), i8* %66)
  br label %74

68:                                               ; preds = %57
  %69 = load i32, i32* %4, align 4
  %70 = sext i32 %69 to i64
  %71 = getelementptr inbounds [101 x [100 x i8]], [101 x [100 x i8]]* %6, i64 0, i64 %70
  %72 = getelementptr inbounds [100 x i8], [100 x i8]* %71, i64 0, i64 0
  %73 = call i32 (i8*, ...) @printf(i8* getelementptr inbounds ([3 x i8], [3 x i8]* @.str, i64 0, i64 0), i8* %72)
  br label %74

74:                                               ; preds = %68, %65
  %75 = load i32, i32* %4, align 4
  %76 = load i8, i8* %9, align 1
  %77 = sext i8 %76 to i32
  %78 = sub nsw i32 %77, 1
  %79 = icmp ne i32 %75, %78
  br i1 %79, label %80, label %82

80:                                               ; preds = %74
  %81 = call i32 (i8*, ...) @printf(i8* getelementptr inbounds ([2 x i8], [2 x i8]* @.str.1, i64 0, i64 0))
  br label %82

82:                                               ; preds = %80, %74
  br label %83

83:                                               ; preds = %82
  %84 = load i32, i32* %4, align 4
  %85 = add nsw i32 %84, 1
  store i32 %85, i32* %4, align 4
  br label %52

86:                                               ; preds = %52
  ret i32 0
}

declare dso_local i32 @gets(...) #1

; Function Attrs: nounwind readonly
declare dso_local i64 @strlen(i8*) #2

declare dso_local i32 @__isoc99_scanf(i8*, ...) #1

; Function Attrs: nounwind readonly
declare dso_local i32 @strcmp(i8*, i8*) #2

declare dso_local i32 @printf(i8*, ...) #1


!llvm.module.flags = !{!0}
!llvm.ident = !{!1}

!0 = !{i32 1, !"wchar_size", i32 4}
!1 = !{!"clang version 10.0.0-4ubuntu1 "}
